target datalayout = "e-m:e-p270:32:32-p271:32:32-p272:64:64-i64:64-i128:128-f80:128-n8:16:32:64-S128"
target triple = "x86_64-pc-linux-gnu"

; Function Attrs: nounwind uwtable
define hidden i32 @mbedtls_des_key_check_weak(ptr noundef %0) #0 {
  %2 = alloca i32, align 4
  %3 = alloca ptr, align 8
  %4 = alloca i32, align 4
  %5 = alloca i32, align 4
  store ptr %0, ptr %3, align 8, !tbaa !10
  call void @llvm.lifetime.start.p0(i64 4, ptr %4) #8
  store i32 0, ptr %4, align 4, !tbaa !12
  br label %6

6:                                                ; preds = %19, %1
  %7 = load i32, ptr %4, align 4, !tbaa !12
  %8 = icmp slt i32 %7, 16
  br i1 %8, label %9, label %22

9:                                                ; preds = %6
  %10 = load i32, ptr %4, align 4, !tbaa !12
  %11 = sext i32 %10 to i64
  %12 = getelementptr inbounds [16 x [8 x i8]], ptr @weak_key_table, i64 0, i64 %11
  %13 = getelementptr inbounds [8 x i8], ptr %12, i64 0, i64 0
  %14 = load ptr, ptr %3, align 8, !tbaa !10
  %15 = call i32 @memcmp(ptr noundef %13, ptr noundef %14, i64 noundef 8) #9
  %16 = icmp eq i32 %15, 0
  br i1 %16, label %17, label %18

17:                                               ; preds = %9
  store i32 1, ptr %2, align 4
  store i32 1, ptr %5, align 4
  br label %23

18:                                               ; preds = %9
  br label %19

19:                                               ; preds = %18
  %20 = load i32, ptr %4, align 4, !tbaa !12
  %21 = add nsw i32 %20, 1
  store i32 %21, ptr %4, align 4, !tbaa !12
  br label %6, !llvm.loop !18

22:                                               ; preds = %6
  store i32 0, ptr %2, align 4
  store i32 1, ptr %5, align 4
  br label %23

23:                                               ; preds = %22, %17
  call void @llvm.lifetime.end.p0(i64 4, ptr %4) #8
  %24 = load i32, ptr %2, align 4
  ret i32 %24
}