; Function Attrs: nofree nounwind memory(argmem: read) uwtable
define hidden range(i32 0, 2) i32 @mbedtls_des_key_check_weak(ptr noundef readonly captures(none) %0) local_unnamed_addr #7 {
  br label %3

2:                                                ; preds = %3
  %indvars.iv.next = add nuw nsw i64 %indvars.iv, 1
  %exitcond.not = icmp eq i64 %indvars.iv.next, 16
  br i1 %exitcond.not, label %6, label %3, !llvm.loop !9

3:                                                ; preds = %1, %2
  %indvars.iv = phi i64 [ 0, %1 ], [ %indvars.iv.next, %2 ]
  %4 = getelementptr inbounds nuw [16 x [8 x i8]], ptr @weak_key_table, i64 0, i64 %indvars.iv
  %bcmp = tail call i32 @bcmp(ptr noundef nonnull dereferenceable(8) %4, ptr noundef nonnull dereferenceable(8) %0, i64 8)
  %5 = icmp eq i32 %bcmp, 0
  br i1 %5, label %6, label %2

6:                                                ; preds = %2, %3
  %.04 = phi i32 [ 1, %3 ], [ 0, %2 ]
  ret i32 %.04
}